; ModuleID = 'bench/linux/original/intel_sbi.ll'
source_filename = "bench/linux/original/intel_sbi.ll"
target datalayout = "e-m:e-p270:32:32-p271:32:32-p272:64:64-i64:64-i128:128-f80:128-n8:16:32:64-S128"
target triple = "x86_64-unknown-linux-gnu"

@.str = private unnamed_addr constant [55 x i8] c"[drm] *ERROR* timeout waiting for SBI to become ready\0A\00", align 1
@.str.1 = private unnamed_addr constant [56 x i8] c"[drm] *ERROR* timeout waiting for SBI to complete read\0A\00", align 1
@.str.2 = private unnamed_addr constant [47 x i8] c"[drm] *ERROR* error during SBI read of reg %x\0A\00", align 1

; Function Attrs: fn_ret_thunk_extern nounwind null_pointer_is_valid
define dso_local i32 @intel_sbi_read(ptr noundef %0, i16 noundef zeroext %1, i32 noundef %2) local_unnamed_addr #0 align 16 {
  %4 = alloca i32, align 4
  call void @llvm.lifetime.start.p0(i64 4, ptr nonnull %4) #4
  store i32 0, ptr %4, align 4
  call fastcc void @intel_sbi_rw(ptr noundef %0, i16 noundef zeroext %1, i32 noundef %2, ptr noundef nonnull %4, i1 noundef zeroext true)
  %5 = load i32, ptr %4, align 4
  call void @llvm.lifetime.end.p0(i64 4, ptr nonnull %4) #4
  ret i32 %5
}

; Function Attrs: mustprogress nocallback nofree nosync nounwind willreturn memory(argmem: readwrite)
declare void @llvm.lifetime.start.p0(i64 immarg, ptr nocapture) #1

; Function Attrs: fn_ret_thunk_extern nounwind null_pointer_is_valid
define internal fastcc void @intel_sbi_rw(ptr noundef %0, i16 noundef zeroext %1, i32 noundef %2, ptr nocapture noundef %3, i1 noundef zeroext %4) unnamed_addr #0 align 16 {
  %6 = alloca i32, align 4
  %7 = getelementptr inbounds i8, ptr %0, i64 7368
  call void @llvm.lifetime.start.p0(i64 4, ptr nonnull %6) #4
  %8 = tail call i32 @__intel_wait_for_register_fw(ptr noundef %7, i32 811016, i32 noundef 1, i32 noundef 0, i32 noundef 2, i32 noundef 100, ptr noundef null) #4
  %9 = icmp eq i32 %8, 0
  br i1 %9, label %17, label %10

10:                                               ; preds = %5
  %11 = icmp eq ptr %0, null
  br i1 %11, label %15, label %12

12:                                               ; preds = %10
  %13 = getelementptr inbounds i8, ptr %0, i64 8
  %14 = load ptr, ptr %13, align 8
  br label %15

15:                                               ; preds = %12, %10
  %16 = phi ptr [ %14, %12 ], [ null, %10 ]
  tail call void (ptr, ptr, ...) @_dev_err(ptr noundef %16, ptr noundef nonnull @.str) #5
  br label %63

17:                                               ; preds = %5
  %18 = zext i16 %1 to i32
  %19 = shl nuw i32 %18, 16
  %20 = load ptr, ptr %7, align 8
  %21 = getelementptr i8, ptr %20, i64 811008
  tail call void asm sideeffect "movl $0,$1", "r,*m,~{memory},~{dirflag},~{fpsr},~{flags}"(i32 %19, ptr elementtype(i32) %21) #4, !srcloc !5
  br i1 %4, label %28, label %22

22:                                               ; preds = %17
  %23 = load i32, ptr %3, align 4
  %24 = load ptr, ptr %7, align 8
  %25 = getelementptr i8, ptr %24, i64 811012
  tail call void asm sideeffect "movl $0,$1", "r,*m,~{memory},~{dirflag},~{fpsr},~{flags}"(i32 %23, ptr elementtype(i32) %25) #4, !srcloc !5
  %26 = icmp eq i32 %2, 0
  %27 = select i1 %26, i32 1792, i32 66304
  br label %33

28:                                               ; preds = %17
  %29 = load ptr, ptr %7, align 8
  %30 = getelementptr i8, ptr %29, i64 811012
  tail call void asm sideeffect "movl $0,$1", "r,*m,~{memory},~{dirflag},~{fpsr},~{flags}"(i32 0, ptr elementtype(i32) %30) #4, !srcloc !5
  %31 = icmp eq i32 %2, 0
  %32 = select i1 %31, i32 1536, i32 66048
  br label %33

33:                                               ; preds = %28, %22
  %34 = phi i32 [ %27, %22 ], [ %32, %28 ]
  store i32 %34, ptr %6, align 4
  %35 = or disjoint i32 %34, 1
  %36 = load ptr, ptr %7, align 8
  %37 = getelementptr i8, ptr %36, i64 811016
  tail call void asm sideeffect "movl $0,$1", "r,*m,~{memory},~{dirflag},~{fpsr},~{flags}"(i32 %35, ptr elementtype(i32) %37) #4, !srcloc !5
  %38 = call i32 @__intel_wait_for_register_fw(ptr noundef %7, i32 811016, i32 noundef 1, i32 noundef 0, i32 noundef 100, i32 noundef 100, ptr noundef nonnull %6) #4
  %39 = icmp eq i32 %38, 0
  br i1 %39, label %47, label %40

40:                                               ; preds = %33
  %41 = icmp eq ptr %0, null
  br i1 %41, label %45, label %42

42:                                               ; preds = %40
  %43 = getelementptr inbounds i8, ptr %0, i64 8
  %44 = load ptr, ptr %43, align 8
  br label %45

45:                                               ; preds = %42, %40
  %46 = phi ptr [ %44, %42 ], [ null, %40 ]
  call void (ptr, ptr, ...) @_dev_err(ptr noundef %46, ptr noundef nonnull @.str.1) #5
  br label %63

47:                                               ; preds = %33
  %48 = load i32, ptr %6, align 4
  %49 = and i32 %48, 2
  %50 = icmp eq i32 %49, 0
  br i1 %50, label %58, label %51

51:                                               ; preds = %47
  %52 = icmp eq ptr %0, null
  br i1 %52, label %56, label %53

53:                                               ; preds = %51
  %54 = getelementptr inbounds i8, ptr %0, i64 8
  %55 = load ptr, ptr %54, align 8
  br label %56

56:                                               ; preds = %53, %51
  %57 = phi ptr [ %55, %53 ], [ null, %51 ]
  call void (ptr, ptr, ...) @_dev_err(ptr noundef %57, ptr noundef nonnull @.str.2, i32 noundef %18) #5
  br label %63

58:                                               ; preds = %47
  br i1 %4, label %59, label %63

59:                                               ; preds = %58
  %60 = load ptr, ptr %7, align 8
  %61 = getelementptr i8, ptr %60, i64 811012
  %62 = call i32 asm sideeffect "movl $1,$0", "=r,*m,~{memory},~{dirflag},~{fpsr},~{flags}"(ptr elementtype(i32) %61) #4, !srcloc !6
  store i32 %62, ptr %3, align 4
  br label %63

63:                                               ; preds = %59, %58, %56, %45, %15
  call void @llvm.lifetime.end.p0(i64 4, ptr nonnull %6) #4
  ret void
}

; Function Attrs: mustprogress nocallback nofree nosync nounwind willreturn memory(argmem: readwrite)
declare void @llvm.lifetime.end.p0(i64 immarg, ptr nocapture) #1

; Function Attrs: fn_ret_thunk_extern nounwind null_pointer_is_valid
define dso_local void @intel_sbi_write(ptr noundef %0, i16 noundef zeroext %1, i32 noundef %2, i32 noundef %3) local_unnamed_addr #0 align 16 {
  %5 = alloca i32, align 4
  store i32 %2, ptr %5, align 4
  call fastcc void @intel_sbi_rw(ptr noundef %0, i16 noundef zeroext %1, i32 noundef %3, ptr noundef nonnull %5, i1 noundef zeroext false)
  ret void
}

; Function Attrs: cold null_pointer_is_valid
declare dso_local void @_dev_err(ptr noundef, ptr noundef, ...) local_unnamed_addr #2

; Function Attrs: null_pointer_is_valid
declare dso_local i32 @__intel_wait_for_register_fw(ptr noundef, i32, i32 noundef, i32 noundef, i32 noundef, i32 noundef, ptr noundef) local_unnamed_addr #3


!llvm.module.flags = !{!0, !1, !2, !3, !4}

!0 = !{i32 1, !"wchar_size", i32 2}
!1 = !{i32 8, !"cf-protection-branch", i32 1}
!2 = !{i32 4, !"function_return_thunk_extern", i32 1}
!3 = !{i32 4, !"indirect_branch_cs_prefix", i32 1}
!4 = !{i32 4, !"SkipRaxSetup", i32 1}
!5 = !{i64 2154392729}
!6 = !{i64 2154390336}
